target datalayout = "e-m:e-p270:32:32-p271:32:32-p272:64:64-i64:64-i128:128-f80:128-n8:16:32:64-S128"
target triple = "x86_64-unknown-linux-gnu"

%"struct.bv::ackerman::vv_hash" = type { i8 }
%"struct.bv::ackerman::vv_eq" = type { i8 }
%"class.bv::ackerman" = type { ptr, %class.hashtable, ptr, ptr, i32, i32, i32, i32, %class.svector }
%class.hashtable = type { %class.core_hashtable.base, [4 x i8] }
%class.core_hashtable.base = type <{ ptr, i32, i32, i32 }>
%class.svector = type { %class.vector }
%class.vector = type { ptr }
%struct.dyn_ack_params = type { i32, i8, double, i32, i32, double }
%"struct.bv::ackerman::vv" = type { %class.dll_base, i32, i32, i32, i32 }
%class.dll_base = type { ptr, ptr }
%class.core_hashtable = type <{ ptr, i32, i32, i32, [4 x i8] }>
%class.default_hash_entry = type { i32, i32, ptr }

; Function Attrs: mustprogress nounwind uwtable
define linkonce_odr hidden void @_ZN18default_hash_entryIPN2bv8ackerman2vvEEC2Ev(ptr noundef nonnull align 8 dereferenceable(16) %this) unnamed_addr #4 comdat align 2 {
entry:
  %this.addr = alloca ptr, align 8
  store ptr %this, ptr %this.addr, align 8
  %this1 = load ptr, ptr %this.addr, align 8
  %m_hash = getelementptr inbounds %class.default_hash_entry, ptr %this1, i32 0, i32 0
  store i32 0, ptr %m_hash, align 8
  %m_state = getelementptr inbounds %class.default_hash_entry, ptr %this1, i32 0, i32 1
  store i32 0, ptr %m_state, align 4
  ret void
}

; Function Attrs: mustprogress uwtable
define linkonce_odr hidden noalias noundef ptr @_Z10alloc_vectI18default_hash_entryIPN2bv8ackerman2vvEEEPT_j(i32 noundef %sz) #5 comdat {
entry:
  %sz.addr = alloca i32, align 4
  %r = alloca ptr, align 8
  %curr = alloca ptr, align 8
  %i = alloca i32, align 4
  store i32 %sz, ptr %sz.addr, align 4
  %0 = load i32, ptr %sz.addr, align 4
  %conv = zext i32 %0 to i64
  %mul = mul i64 16, %conv
  %call = call noalias noundef ptr @_ZN6memory8allocateEm(i64 noundef %mul)
  store ptr %call, ptr %r, align 8
  %1 = load ptr, ptr %r, align 8
  store ptr %1, ptr %curr, align 8
  store i32 0, ptr %i, align 4
  br label %for.cond

for.cond:                                         ; preds = %for.inc, %entry
  %2 = load i32, ptr %i, align 4
  %3 = load i32, ptr %sz.addr, align 4
  %cmp = icmp ult i32 %2, %3
  br i1 %cmp, label %for.body, label %for.end

for.body:                                         ; preds = %for.cond
  %4 = load ptr, ptr %curr, align 8
  call void @llvm.memset.p0.i64(ptr align 8 %4, i8 0, i64 16, i1 false)
  call void @_ZN18default_hash_entryIPN2bv8ackerman2vvEEC2Ev(ptr noundef nonnull align 8 dereferenceable(16) %4) #3
  br label %for.inc

for.inc:                                          ; preds = %for.body
  %5 = load i32, ptr %i, align 4
  %inc = add i32 %5, 1
  store i32 %inc, ptr %i, align 4
  %6 = load ptr, ptr %curr, align 8
  %incdec.ptr = getelementptr inbounds %class.default_hash_entry, ptr %6, i32 1
  store ptr %incdec.ptr, ptr %curr, align 8
  br label %for.cond, !llvm.loop !12

for.end:                                          ; preds = %for.cond
  %7 = load ptr, ptr %r, align 8
  ret ptr %7
}

; Function Attrs: mustprogress nounwind uwtable
define linkonce_odr hidden void @_ZN8dll_baseIN2bv8ackerman2vvEEC2Ev(ptr noundef nonnull align 8 dereferenceable(16) %this) unnamed_addr #4 comdat align 2 {
entry:
  %this.addr = alloca ptr, align 8
  store ptr %this, ptr %this.addr, align 8
  %this1 = load ptr, ptr %this.addr, align 8
  %m_next = getelementptr inbounds %class.dll_base, ptr %this1, i32 0, i32 0
  store ptr null, ptr %m_next, align 8
  %m_prev = getelementptr inbounds %class.dll_base, ptr %this1, i32 0, i32 1
  store ptr null, ptr %m_prev, align 8
  ret void
}

; Function Attrs: mustprogress uwtable
define linkonce_odr hidden noundef ptr @_ZN14core_hashtableI18default_hash_entryIPN2bv8ackerman2vvEENS2_7vv_hashENS2_5vv_eqEE11alloc_tableEj(ptr noundef nonnull align 8 dereferenceable(20) %this, i32 noundef %size) #5 comdat align 2 {
entry:
  %this.addr = alloca ptr, align 8
  %size.addr = alloca i32, align 4
  %entries = alloca ptr, align 8
  store ptr %this, ptr %this.addr, align 8
  store i32 %size, ptr %size.addr, align 4
  %0 = load i32, ptr %size.addr, align 4
  %call = call noalias noundef ptr @_Z10alloc_vectI18default_hash_entryIPN2bv8ackerman2vvEEEPT_j(i32 noundef %0)
  store ptr %call, ptr %entries, align 8
  %1 = load ptr, ptr %entries, align 8
  ret ptr %1
}

; Function Attrs: mustprogress nounwind uwtable
define linkonce_odr hidden void @_ZN8dll_baseIN2bv8ackerman2vvEE4initEPS2_(ptr noundef nonnull align 8 dereferenceable(16) %this, ptr noundef %t) #4 comdat align 2 {
entry:
  %this.addr = alloca ptr, align 8
  %t.addr = alloca ptr, align 8
  store ptr %this, ptr %this.addr, align 8
  store ptr %t, ptr %t.addr, align 8
  %this1 = load ptr, ptr %this.addr, align 8
  %0 = load ptr, ptr %t.addr, align 8
  %m_next = getelementptr inbounds %class.dll_base, ptr %this1, i32 0, i32 0
  store ptr %0, ptr %m_next, align 8
  %1 = load ptr, ptr %t.addr, align 8
  %m_prev = getelementptr inbounds %class.dll_base, ptr %this1, i32 0, i32 1
  store ptr %1, ptr %m_prev, align 8
  ret void
}

; Function Attrs: mustprogress nounwind uwtable
define linkonce_odr hidden void @_ZN2bv8ackerman2vvC2Ev(ptr noundef nonnull align 8 dereferenceable(32) %this) unnamed_addr #4 comdat align 2 {
entry:
  %this.addr = alloca ptr, align 8
  store ptr %this, ptr %this.addr, align 8
  %this1 = load ptr, ptr %this.addr, align 8
  call void @_ZN8dll_baseIN2bv8ackerman2vvEEC2Ev(ptr noundef nonnull align 8 dereferenceable(16) %this1) #3
  %v1 = getelementptr inbounds %"struct.bv::ackerman::vv", ptr %this1, i32 0, i32 1
  store i32 -1, ptr %v1, align 8
  %v2 = getelementptr inbounds %"struct.bv::ackerman::vv", ptr %this1, i32 0, i32 2
  store i32 -1, ptr %v2, align 4
  %m_count = getelementptr inbounds %"struct.bv::ackerman::vv", ptr %this1, i32 0, i32 3
  store i32 0, ptr %m_count, align 8
  %m_glue = getelementptr inbounds %"struct.bv::ackerman::vv", ptr %this1, i32 0, i32 4
  store i32 -1, ptr %m_glue, align 4
  ret void
}

; Function Attrs: mustprogress nounwind uwtable
define linkonce_odr hidden void @_ZN6vectorIbLb0EjEC2Ev(ptr noundef nonnull align 8 dereferenceable(8) %this) unnamed_addr #4 comdat align 2 {
entry:
  %this.addr = alloca ptr, align 8
  store ptr %this, ptr %this.addr, align 8
  %this1 = load ptr, ptr %this.addr, align 8
  %m_data = getelementptr inbounds %class.vector, ptr %this1, i32 0, i32 0
  store ptr null, ptr %m_data, align 8
  ret void
}

; Function Attrs: mustprogress uwtable
define linkonce_odr hidden void @_ZN14core_hashtableI18default_hash_entryIPN2bv8ackerman2vvEENS2_7vv_hashENS2_5vv_eqEEC2EjRKS6_RKS7_(ptr noundef nonnull align 8 dereferenceable(20) %this, i32 noundef %initial_capacity, ptr noundef nonnull align 1 dereferenceable(1) %h, ptr noundef nonnull align 1 dereferenceable(1) %e) unnamed_addr #5 comdat align 2 {
entry:
  %this.addr = alloca ptr, align 8
  %initial_capacity.addr = alloca i32, align 4
  %h.addr = alloca ptr, align 8
  %e.addr = alloca ptr, align 8
  store ptr %this, ptr %this.addr, align 8
  store i32 %initial_capacity, ptr %initial_capacity.addr, align 4
  store ptr %h, ptr %h.addr, align 8
  store ptr %e, ptr %e.addr, align 8
  %this1 = load ptr, ptr %this.addr, align 8
  %0 = load i32, ptr %initial_capacity.addr, align 4
  %call = call noundef ptr @_ZN14core_hashtableI18default_hash_entryIPN2bv8ackerman2vvEENS2_7vv_hashENS2_5vv_eqEE11alloc_tableEj(ptr noundef nonnull align 8 dereferenceable(20) %this1, i32 noundef %0)
  %m_table = getelementptr inbounds %class.core_hashtable, ptr %this1, i32 0, i32 0
  store ptr %call, ptr %m_table, align 8
  %1 = load i32, ptr %initial_capacity.addr, align 4
  %m_capacity = getelementptr inbounds %class.core_hashtable, ptr %this1, i32 0, i32 1
  store i32 %1, ptr %m_capacity, align 8
  %m_size = getelementptr inbounds %class.core_hashtable, ptr %this1, i32 0, i32 2
  store i32 0, ptr %m_size, align 4
  %m_num_deleted = getelementptr inbounds %class.core_hashtable, ptr %this1, i32 0, i32 3
  store i32 0, ptr %m_num_deleted, align 8
  ret void
}

; Function Attrs: mustprogress uwtable
define hidden void @_ZN2bv8ackerman7new_tmpEv(ptr noundef nonnull align 8 dereferenceable(72) %this) #5 align 2 {
entry:
  %this.addr = alloca ptr, align 8
  store ptr %this, ptr %this.addr, align 8
  %this1 = load ptr, ptr %this.addr, align 8
  %call = call noalias noundef ptr @_ZN6memory8allocateEm(i64 noundef 32)
  call void @_ZN2bv8ackerman2vvC2Ev(ptr noundef nonnull align 8 dereferenceable(32) %call)
  %m_tmp_vv = getelementptr inbounds %"class.bv::ackerman", ptr %this1, i32 0, i32 3
  store ptr %call, ptr %m_tmp_vv, align 8
  %m_tmp_vv2 = getelementptr inbounds %"class.bv::ackerman", ptr %this1, i32 0, i32 3
  %0 = load ptr, ptr %m_tmp_vv2, align 8
  %m_tmp_vv3 = getelementptr inbounds %"class.bv::ackerman", ptr %this1, i32 0, i32 3
  %1 = load ptr, ptr %m_tmp_vv3, align 8
  call void @_ZN8dll_baseIN2bv8ackerman2vvEE4initEPS2_(ptr noundef nonnull align 8 dereferenceable(16) %0, ptr noundef %1)
  %m_tmp_vv4 = getelementptr inbounds %"class.bv::ackerman", ptr %this1, i32 0, i32 3
  %2 = load ptr, ptr %m_tmp_vv4, align 8
  %m_count = getelementptr inbounds %"struct.bv::ackerman::vv", ptr %2, i32 0, i32 3
  store i32 0, ptr %m_count, align 8
  %m_tmp_vv5 = getelementptr inbounds %"class.bv::ackerman", ptr %this1, i32 0, i32 3
  %3 = load ptr, ptr %m_tmp_vv5, align 8
  %m_glue = getelementptr inbounds %"struct.bv::ackerman::vv", ptr %3, i32 0, i32 4
  store i32 -1, ptr %m_glue, align 4
  ret void
}

; Function Attrs: mustprogress nounwind uwtable
define linkonce_odr hidden void @_ZN7svectorIbjEC2Ev(ptr noundef nonnull align 8 dereferenceable(8) %this) unnamed_addr #4 comdat align 2 {
entry:
  %this.addr = alloca ptr, align 8
  store ptr %this, ptr %this.addr, align 8
  %this1 = load ptr, ptr %this.addr, align 8
  %0 = getelementptr inbounds i8, ptr %this1, i64 0
  call void @llvm.memset.p0.i64(ptr align 8 %0, i8 0, i64 8, i1 false)
  call void @_ZN6vectorIbLb0EjEC2Ev(ptr noundef nonnull align 8 dereferenceable(8) %this1) #3
  ret void
}

; Function Attrs: mustprogress uwtable
define linkonce_odr hidden void @_ZN9hashtableIPN2bv8ackerman2vvENS1_7vv_hashENS1_5vv_eqEEC2EjRKS4_RKS5_(ptr noundef nonnull align 8 dereferenceable(20) %this, i32 noundef %initial_capacity, ptr noundef nonnull align 1 dereferenceable(1) %h, ptr noundef nonnull align 1 dereferenceable(1) %e) unnamed_addr #5 comdat align 2 {
entry:
  %this.addr = alloca ptr, align 8
  %initial_capacity.addr = alloca i32, align 4
  %h.addr = alloca ptr, align 8
  %e.addr = alloca ptr, align 8
  store ptr %this, ptr %this.addr, align 8
  store i32 %initial_capacity, ptr %initial_capacity.addr, align 4
  store ptr %h, ptr %h.addr, align 8
  store ptr %e, ptr %e.addr, align 8
  %this1 = load ptr, ptr %this.addr, align 8
  %0 = load i32, ptr %initial_capacity.addr, align 4
  %1 = load ptr, ptr %h.addr, align 8
  %2 = load ptr, ptr %e.addr, align 8
  call void @_ZN14core_hashtableI18default_hash_entryIPN2bv8ackerman2vvEENS2_7vv_hashENS2_5vv_eqEEC2EjRKS6_RKS7_(ptr noundef nonnull align 8 dereferenceable(20) %this1, i32 noundef %0, ptr noundef nonnull align 1 dereferenceable(1) %1, ptr noundef nonnull align 1 dereferenceable(1) %2)
  ret void
}

; Function Attrs: mustprogress uwtable
define hidden void @_ZN2bv8ackermanC2ERNS_6solverE(ptr noundef nonnull align 8 dereferenceable(72) %this, ptr noundef nonnull align 8 dereferenceable(640) %s) unnamed_addr #5 align 2 personality ptr @__gxx_personality_v0 {
entry:
  %this.addr = alloca ptr, align 8
  %s.addr = alloca ptr, align 8
  %ref.tmp = alloca %"struct.bv::ackerman::vv_hash", align 1
  %ref.tmp3 = alloca %"struct.bv::ackerman::vv_eq", align 1
  %exn.slot = alloca ptr, align 8
  %ehselector.slot = alloca i32, align 4
  store ptr %this, ptr %this.addr, align 8
  store ptr %s, ptr %s.addr, align 8
  %this1 = load ptr, ptr %this.addr, align 8
  %s2 = getelementptr inbounds %"class.bv::ackerman", ptr %this1, i32 0, i32 0
  %0 = load ptr, ptr %s.addr, align 8
  store ptr %0, ptr %s2, align 8
  %m_table = getelementptr inbounds %"class.bv::ackerman", ptr %this1, i32 0, i32 1
  call void @_ZN9hashtableIPN2bv8ackerman2vvENS1_7vv_hashENS1_5vv_eqEEC2EjRKS4_RKS5_(ptr noundef nonnull align 8 dereferenceable(20) %m_table, i32 noundef 8, ptr noundef nonnull align 1 dereferenceable(1) %ref.tmp, ptr noundef nonnull align 1 dereferenceable(1) %ref.tmp3)
  %m_queue = getelementptr inbounds %"class.bv::ackerman", ptr %this1, i32 0, i32 2
  store ptr null, ptr %m_queue, align 8
  %m_tmp_vv = getelementptr inbounds %"class.bv::ackerman", ptr %this1, i32 0, i32 3
  store ptr null, ptr %m_tmp_vv, align 8
  %m_gc_threshold = getelementptr inbounds %"class.bv::ackerman", ptr %this1, i32 0, i32 4
  store i32 100, ptr %m_gc_threshold, align 8
  %m_propagate_high_watermark = getelementptr inbounds %"class.bv::ackerman", ptr %this1, i32 0, i32 5
  store i32 10000, ptr %m_propagate_high_watermark, align 4
  %m_propagate_low_watermark = getelementptr inbounds %"class.bv::ackerman", ptr %this1, i32 0, i32 6
  store i32 10, ptr %m_propagate_low_watermark, align 8
  %m_num_propagations_since_last_gc = getelementptr inbounds %"class.bv::ackerman", ptr %this1, i32 0, i32 7
  store i32 0, ptr %m_num_propagations_since_last_gc, align 4
  %m_diff_levels = getelementptr inbounds %"class.bv::ackerman", ptr %this1, i32 0, i32 8
  invoke void @_ZN7svectorIbjEC2Ev(ptr noundef nonnull align 8 dereferenceable(8) %m_diff_levels)
          to label %invoke.cont unwind label %lpad

invoke.cont:                                      ; preds = %entry
  invoke void @_ZN2bv8ackerman7new_tmpEv(ptr noundef nonnull align 8 dereferenceable(72) %this1)
          to label %invoke.cont5 unwind label %lpad4

invoke.cont5:                                     ; preds = %invoke.cont
  %1 = load ptr, ptr %s.addr, align 8
  %call = invoke noundef nonnull align 8 dereferenceable(800) ptr @_ZNK3euf13th_euf_solver10get_configEv(ptr noundef nonnull align 8 dereferenceable(108) %1)
          to label %invoke.cont6 unwind label %lpad4

invoke.cont6:                                     ; preds = %invoke.cont5
  %add.ptr = getelementptr inbounds i8, ptr %call, i64 72
  %m_dack_threshold = getelementptr inbounds %struct.dyn_ack_params, ptr %add.ptr, i32 0, i32 3
  %2 = load i32, ptr %m_dack_threshold, align 8
  %m_propagate_low_watermark7 = getelementptr inbounds %"class.bv::ackerman", ptr %this1, i32 0, i32 6
  store i32 %2, ptr %m_propagate_low_watermark7, align 8
  ret void

lpad:                                             ; preds = %entry
  %3 = landingpad { ptr, i32 }
          cleanup
  %4 = extractvalue { ptr, i32 } %3, 0
  store ptr %4, ptr %exn.slot, align 8
  %5 = extractvalue { ptr, i32 } %3, 1
  store i32 %5, ptr %ehselector.slot, align 4
  br label %ehcleanup

lpad4:                                            ; preds = %invoke.cont5, %invoke.cont
  %6 = landingpad { ptr, i32 }
          cleanup
  %7 = extractvalue { ptr, i32 } %6, 0
  store ptr %7, ptr %exn.slot, align 8
  %8 = extractvalue { ptr, i32 } %6, 1
  store i32 %8, ptr %ehselector.slot, align 4
  call void @_ZN7svectorIbjED2Ev(ptr noundef nonnull align 8 dereferenceable(8) %m_diff_levels) #3
  br label %ehcleanup

ehcleanup:                                        ; preds = %lpad4, %lpad
  call void @_ZN9hashtableIPN2bv8ackerman2vvENS1_7vv_hashENS1_5vv_eqEED2Ev(ptr noundef nonnull align 8 dereferenceable(20) %m_table) #3
  br label %eh.resume

eh.resume:                                        ; preds = %ehcleanup
  %exn = load ptr, ptr %exn.slot, align 8
  %sel = load i32, ptr %ehselector.slot, align 4
  %lpad.val = insertvalue { ptr, i32 } poison, ptr %exn, 0
  %lpad.val8 = insertvalue { ptr, i32 } %lpad.val, i32 %sel, 1
  resume { ptr, i32 } %lpad.val8
}