; Function Attrs: mustprogress uwtable
define hidden void @_ZN2bv8ackermanC2ERNS_6solverE(ptr noundef nonnull align 8 dereferenceable(72) %this, ptr noundef nonnull align 8 dereferenceable(640) %s) unnamed_addr #3 align 2 personality ptr @__gxx_personality_v0 {
entry:
  store ptr %s, ptr %this, align 8
  %m_table = getelementptr inbounds i8, ptr %this, i64 8
  %call.i.i.i.i = tail call noalias noundef ptr @_ZN6memory8allocateEm(i64 noundef 128)
  tail call void @llvm.memset.p0.i64(ptr noundef nonnull align 8 dereferenceable(128) %call.i.i.i.i, i8 0, i64 128, i1 false)
  store ptr %call.i.i.i.i, ptr %m_table, align 8
  %m_capacity.i.i = getelementptr inbounds i8, ptr %this, i64 16
  store i32 8, ptr %m_capacity.i.i, align 8
  %m_size.i.i = getelementptr inbounds i8, ptr %this, i64 20
  store i32 0, ptr %m_size.i.i, align 4
  %m_num_deleted.i.i = getelementptr inbounds i8, ptr %this, i64 24
  store i32 0, ptr %m_num_deleted.i.i, align 8
  %m_queue = getelementptr inbounds i8, ptr %this, i64 32
  %m_gc_threshold = getelementptr inbounds i8, ptr %this, i64 48
  tail call void @llvm.memset.p0.i64(ptr noundef nonnull align 8 dereferenceable(16) %m_queue, i8 0, i64 16, i1 false)
  store <4 x i32> <i32 100, i32 10000, i32 10, i32 0>, ptr %m_gc_threshold, align 8
  %m_diff_levels = getelementptr inbounds i8, ptr %this, i64 64
  store ptr null, ptr %m_diff_levels, align 8
  %call.i2 = invoke noalias noundef ptr @_ZN6memory8allocateEm(i64 noundef 32)
          to label %invoke.cont5 unwind label %lpad4

invoke.cont5:                                     ; preds = %entry
  %m_tmp_vv = getelementptr inbounds i8, ptr %this, i64 40
  %v1.i.i = getelementptr inbounds i8, ptr %call.i2, i64 16
  store ptr %call.i2, ptr %m_tmp_vv, align 8
  store ptr %call.i2, ptr %call.i2, align 8
  %m_prev.i.i = getelementptr inbounds i8, ptr %call.i2, i64 8
  store ptr %call.i2, ptr %m_prev.i.i, align 8
  store <4 x i32> <i32 -1, i32 -1, i32 0, i32 -1>, ptr %v1.i.i, align 8
  %call = invoke noundef nonnull align 8 dereferenceable(800) ptr @_ZNK3euf13th_euf_solver10get_configEv(ptr noundef nonnull align 8 dereferenceable(108) %s)
          to label %invoke.cont6 unwind label %lpad4

invoke.cont6:                                     ; preds = %invoke.cont5
  %m_propagate_low_watermark = getelementptr inbounds i8, ptr %this, i64 56
  %m_dack_threshold = getelementptr inbounds i8, ptr %call, i64 88
  %0 = load i32, ptr %m_dack_threshold, align 8
  store i32 %0, ptr %m_propagate_low_watermark, align 8
  ret void

lpad4:                                            ; preds = %entry, %invoke.cont5
  %1 = landingpad { ptr, i32 }
          cleanup
  tail call void @_ZN7svectorIbjED2Ev(ptr noundef nonnull align 8 dereferenceable(8) %m_diff_levels) #14
  tail call void @_ZN9hashtableIPN2bv8ackerman2vvENS1_7vv_hashENS1_5vv_eqEED2Ev(ptr noundef nonnull align 8 dereferenceable(20) %m_table) #14
  resume { ptr, i32 } %1
}